target datalayout = "e-m:e-p270:32:32-p271:32:32-p272:64:64-i64:64-i128:128-f80:128-n8:16:32:64-S128"
target triple = "x86_64-pc-linux-gnu"

%struct._object = type { %union.anon, ptr }
%union.anon = type { i64 }
%struct.PyVarObject = type { %struct._object, i64 }
%struct.Py_buffer = type { ptr, ptr, i64, i64, i32, i32, ptr, ptr, ptr, ptr, ptr }
%struct.anon = type { i32, i32 }

; Function Attrs: alwaysinline nounwind uwtable
define internal i32 @_Py_IsImmortal(ptr noundef %0) #4 {
  %2 = alloca ptr, align 8
  store ptr %0, ptr %2, align 8, !tbaa !3
  %3 = load ptr, ptr %2, align 8, !tbaa !3
  %4 = getelementptr inbounds nuw %struct._object, ptr %3, i32 0, i32 0
  %5 = getelementptr inbounds nuw %struct.anon, ptr %4, i32 0, i32 0
  %6 = load i32, ptr %5, align 8, !tbaa !32
  %7 = icmp slt i32 %6, 0
  %8 = zext i1 %7 to i32
  ret i32 %8
}

; Function Attrs: inlinehint nounwind uwtable
define internal i64 @Py_SIZE(ptr noundef %0) #2 {
  %2 = alloca ptr, align 8
  store ptr %0, ptr %2, align 8, !tbaa !3
  %3 = load ptr, ptr %2, align 8, !tbaa !3
  %4 = getelementptr inbounds nuw %struct.PyVarObject, ptr %3, i32 0, i32 1
  %5 = load i64, ptr %4, align 8, !tbaa !69
  ret i64 %5
}

; Function Attrs: alwaysinline nounwind uwtable
define internal void @Py_DECREF(ptr noundef %0) #4 {
  %2 = alloca ptr, align 8
  store ptr %0, ptr %2, align 8, !tbaa !3
  %3 = load ptr, ptr %2, align 8, !tbaa !3
  %4 = call i32 @_Py_IsImmortal(ptr noundef %3)
  %5 = icmp ne i32 %4, 0
  br i1 %5, label %6, label %7

6:                                                ; preds = %1
  br label %16

7:                                                ; preds = %1
  %8 = load ptr, ptr %2, align 8, !tbaa !3
  %9 = getelementptr inbounds nuw %struct._object, ptr %8, i32 0, i32 0
  %10 = getelementptr inbounds nuw %struct.anon, ptr %9, i32 0, i32 0
  %11 = load i32, ptr %10, align 8, !tbaa !32
  %12 = add i32 %11, -1
  store i32 %12, ptr %10, align 8, !tbaa !32
  %13 = icmp eq i32 %12, 0
  br i1 %13, label %14, label %16

14:                                               ; preds = %7
  %15 = load ptr, ptr %2, align 8, !tbaa !3
  call void @_Py_Dealloc(ptr noundef %15)
  br label %16

16:                                               ; preds = %6, %14, %7
  ret void
}

; Function Attrs: inlinehint nounwind uwtable
define internal i64 @PyTuple_GET_SIZE(ptr noundef %0) #2 {
  %2 = alloca ptr, align 8
  %3 = alloca ptr, align 8
  store ptr %0, ptr %2, align 8, !tbaa !3
  call void @llvm.lifetime.start.p0(i64 8, ptr %3) #8
  %4 = load ptr, ptr %2, align 8, !tbaa !3
  store ptr %4, ptr %3, align 8, !tbaa !8
  %5 = load ptr, ptr %3, align 8, !tbaa !8
  %6 = call i64 @Py_SIZE(ptr noundef %5)
  call void @llvm.lifetime.end.p0(i64 8, ptr %3) #8
  ret i64 %6
}

; Function Attrs: nounwind uwtable
define internal ptr @Struct_unpack_from(ptr noundef %0, ptr noundef %1, i64 noundef %2, ptr noundef %3) #0 {
  %5 = alloca ptr, align 8
  %6 = alloca ptr, align 8
  %7 = alloca ptr, align 8
  %8 = alloca i64, align 8
  %9 = alloca ptr, align 8
  %10 = alloca ptr, align 8
  %11 = alloca [2 x ptr], align 16
  %12 = alloca i64, align 8
  %13 = alloca %struct.Py_buffer, align 8
  %14 = alloca i64, align 8
  %15 = alloca i64, align 8
  %16 = alloca ptr, align 8
  %17 = alloca i32, align 4
  store ptr %0, ptr %6, align 8, !tbaa !3
  store ptr %1, ptr %7, align 8, !tbaa !16
  store i64 %2, ptr %8, align 8, !tbaa !18
  store ptr %3, ptr %9, align 8, !tbaa !3
  call void @llvm.lifetime.start.p0(i64 8, ptr %10) #8
  store ptr null, ptr %10, align 8, !tbaa !3
  call void @llvm.lifetime.start.p0(i64 16, ptr %11) #8
  call void @llvm.lifetime.start.p0(i64 8, ptr %12) #8
  %18 = load i64, ptr %8, align 8, !tbaa !18
  %19 = load ptr, ptr %9, align 8, !tbaa !3
  %20 = icmp ne ptr %19, null
  br i1 %20, label %21, label %24

21:                                               ; preds = %4
  %22 = load ptr, ptr %9, align 8, !tbaa !3
  %23 = call i64 @PyTuple_GET_SIZE(ptr noundef %22)
  br label %25

24:                                               ; preds = %4
  br label %25

25:                                               ; preds = %24, %21
  %26 = phi i64 [ %23, %21 ], [ 0, %24 ]
  %27 = add i64 %18, %26
  %28 = sub i64 %27, 1
  store i64 %28, ptr %12, align 8, !tbaa !18
  call void @llvm.lifetime.start.p0(i64 80, ptr %13) #8
  call void @llvm.memset.p0.i64(ptr align 8 %13, i8 0, i64 80, i1 false)
  call void @llvm.lifetime.start.p0(i64 8, ptr %14) #8
  store i64 0, ptr %14, align 8, !tbaa !18
  %29 = load ptr, ptr %9, align 8, !tbaa !3
  %30 = icmp eq ptr %29, null
  br i1 %30, label %31, label %42

31:                                               ; preds = %25
  %32 = load i64, ptr %8, align 8, !tbaa !18
  %33 = icmp sle i64 1, %32
  br i1 %33, label %34, label %42

34:                                               ; preds = %31
  %35 = load i64, ptr %8, align 8, !tbaa !18
  %36 = icmp sle i64 %35, 2
  br i1 %36, label %37, label %42

37:                                               ; preds = %34
  %38 = load ptr, ptr %7, align 8, !tbaa !16
  %39 = icmp ne ptr %38, null
  br i1 %39, label %40, label %42

40:                                               ; preds = %37
  %41 = load ptr, ptr %7, align 8, !tbaa !16
  br label %48

42:                                               ; preds = %37, %34, %31, %25
  %43 = load ptr, ptr %7, align 8, !tbaa !16
  %44 = load i64, ptr %8, align 8, !tbaa !18
  %45 = load ptr, ptr %9, align 8, !tbaa !3
  %46 = getelementptr inbounds [2 x ptr], ptr %11, i64 0, i64 0
  %47 = call ptr @_PyArg_UnpackKeywords(ptr noundef %43, i64 noundef %44, ptr noundef null, ptr noundef %45, ptr noundef @Struct_unpack_from._parser, i32 noundef 1, i32 noundef 2, i32 noundef 0, i32 noundef 0, ptr noundef %46)
  br label %48

48:                                               ; preds = %42, %40
  %49 = phi ptr [ %41, %40 ], [ %47, %42 ]
  store ptr %49, ptr %7, align 8, !tbaa !16
  %50 = load ptr, ptr %7, align 8, !tbaa !16
  %51 = icmp ne ptr %50, null
  br i1 %51, label %53, label %52

52:                                               ; preds = %48
  br label %91

53:                                               ; preds = %48
  %54 = load ptr, ptr %7, align 8, !tbaa !16
  %55 = getelementptr ptr, ptr %54, i64 0
  %56 = load ptr, ptr %55, align 8, !tbaa !3
  %57 = call i32 @PyObject_GetBuffer(ptr noundef %56, ptr noundef %13, i32 noundef 0)
  %58 = icmp ne i32 %57, 0
  br i1 %58, label %59, label %60

59:                                               ; preds = %53
  br label %91

60:                                               ; preds = %53
  %61 = load i64, ptr %12, align 8, !tbaa !18
  %62 = icmp ne i64 %61, 0
  br i1 %62, label %64, label %63

63:                                               ; preds = %60
  br label %87

64:                                               ; preds = %60
  call void @llvm.lifetime.start.p0(i64 8, ptr %15) #8
  store i64 -1, ptr %15, align 8, !tbaa !18
  call void @llvm.lifetime.start.p0(i64 8, ptr %16) #8
  %65 = load ptr, ptr %7, align 8, !tbaa !16
  %66 = getelementptr ptr, ptr %65, i64 1
  %67 = load ptr, ptr %66, align 8, !tbaa !3
  %68 = call ptr @_PyNumber_Index(ptr noundef %67)
  store ptr %68, ptr %16, align 8, !tbaa !3
  %69 = load ptr, ptr %16, align 8, !tbaa !3
  %70 = icmp ne ptr %69, null
  br i1 %70, label %71, label %75

71:                                               ; preds = %64
  %72 = load ptr, ptr %16, align 8, !tbaa !3
  %73 = call i64 @PyLong_AsSsize_t(ptr noundef %72)
  store i64 %73, ptr %15, align 8, !tbaa !18
  %74 = load ptr, ptr %16, align 8, !tbaa !3
  call void @Py_DECREF(ptr noundef %74)
  br label %75

75:                                               ; preds = %71, %64
  %76 = load i64, ptr %15, align 8, !tbaa !18
  %77 = icmp eq i64 %76, -1
  br i1 %77, label %78, label %82

78:                                               ; preds = %75
  %79 = call ptr @PyErr_Occurred()
  %80 = icmp ne ptr %79, null
  br i1 %80, label %81, label %82

81:                                               ; preds = %78
  store i32 2, ptr %17, align 4
  br label %84

82:                                               ; preds = %78, %75
  %83 = load i64, ptr %15, align 8, !tbaa !18
  store i64 %83, ptr %14, align 8, !tbaa !18
  store i32 0, ptr %17, align 4
  br label %84

84:                                               ; preds = %81, %82
  call void @llvm.lifetime.end.p0(i64 8, ptr %16) #8
  call void @llvm.lifetime.end.p0(i64 8, ptr %15) #8
  %85 = load i32, ptr %17, align 4
  switch i32 %85, label %98 [
    i32 0, label %86
    i32 2, label %91
  ]

86:                                               ; preds = %84
  br label %87

87:                                               ; preds = %86, %63
  %88 = load ptr, ptr %6, align 8, !tbaa !3
  %89 = load i64, ptr %14, align 8, !tbaa !18
  %90 = call ptr @Struct_unpack_from_impl(ptr noundef %88, ptr noundef %13, i64 noundef %89)
  store ptr %90, ptr %10, align 8, !tbaa !3
  br label %91

91:                                               ; preds = %87, %84, %59, %52
  %92 = getelementptr inbounds nuw %struct.Py_buffer, ptr %13, i32 0, i32 1
  %93 = load ptr, ptr %92, align 8, !tbaa !20
  %94 = icmp ne ptr %93, null
  br i1 %94, label %95, label %96

95:                                               ; preds = %91
  call void @PyBuffer_Release(ptr noundef %13)
  br label %96

96:                                               ; preds = %95, %91
  %97 = load ptr, ptr %10, align 8, !tbaa !3
  store ptr %97, ptr %5, align 8
  store i32 1, ptr %17, align 4
  br label %98

98:                                               ; preds = %96, %84
  call void @llvm.lifetime.end.p0(i64 8, ptr %14) #8
  call void @llvm.lifetime.end.p0(i64 80, ptr %13) #8
  call void @llvm.lifetime.end.p0(i64 8, ptr %12) #8
  call void @llvm.lifetime.end.p0(i64 16, ptr %11) #8
  call void @llvm.lifetime.end.p0(i64 8, ptr %10) #8
  %99 = load ptr, ptr %5, align 8
  ret ptr %99
}