; Function Attrs: nounwind uwtable
define internal ptr @Struct_unpack_from(ptr noundef readonly captures(none) %0, ptr noundef %1, i64 noundef %2, ptr noundef %3) #0 {
  %5 = alloca [2 x ptr], align 16
  %6 = alloca %struct.Py_buffer, align 8
  call void @llvm.lifetime.start.p0(i64 16, ptr nonnull %5) #7
  %.not = icmp eq ptr %3, null
  br i1 %.not, label %9, label %7

7:                                                ; preds = %4
  %8 = getelementptr i8, ptr %3, i64 16
  %.val = load i64, ptr %8, align 8, !tbaa !32
  br label %9

9:                                                ; preds = %4, %7
  %10 = phi i64 [ %.val, %7 ], [ 0, %4 ]
  %11 = add i64 %10, %2
  call void @llvm.lifetime.start.p0(i64 80, ptr nonnull %6) #7
  call void @llvm.memset.p0.i64(ptr noundef nonnull align 8 dereferenceable(80) %6, i8 0, i64 80, i1 false)
  %12 = add i64 %2, -1
  %13 = icmp ult i64 %12, 2
  %14 = icmp ne ptr %1, null
  %15 = and i1 %14, %13
  %or.cond5 = and i1 %.not, %15
  br i1 %or.cond5, label %.thread, label %16

16:                                               ; preds = %9
  %17 = call ptr @_PyArg_UnpackKeywords(ptr noundef %1, i64 noundef %2, ptr noundef null, ptr noundef %3, ptr noundef nonnull @Struct_unpack_from._parser, i32 noundef 1, i32 noundef 2, i32 noundef 0, i32 noundef 0, ptr noundef nonnull %5) #7
  %.not37 = icmp eq ptr %17, null
  br i1 %.not37, label %36, label %.thread

.thread:                                          ; preds = %9, %16
  %18 = phi ptr [ %17, %16 ], [ %1, %9 ]
  %19 = load ptr, ptr %18, align 8, !tbaa !17
  %20 = call i32 @PyObject_GetBuffer(ptr noundef %19, ptr noundef nonnull %6, i32 noundef 0) #7
  %.not38 = icmp eq i32 %20, 0
  br i1 %.not38, label %21, label %36

21:                                               ; preds = %.thread
  %.not39 = icmp eq i64 %11, 1
  br i1 %.not39, label %.thread48, label %22

22:                                               ; preds = %21
  %23 = getelementptr i8, ptr %18, i64 8
  %24 = load ptr, ptr %23, align 8, !tbaa !17
  %25 = call ptr @_PyNumber_Index(ptr noundef %24) #7
  %.not40 = icmp eq ptr %25, null
  br i1 %.not40, label %Py_DECREF.exit.thread, label %26

26:                                               ; preds = %22
  %27 = call i64 @PyLong_AsSsize_t(ptr noundef nonnull %25) #7
  %28 = load i32, ptr %25, align 8, !tbaa !18
  %.not.i = icmp sgt i32 %28, -1
  br i1 %.not.i, label %29, label %Py_DECREF.exit

29:                                               ; preds = %26
  %30 = add nsw i32 %28, -1
  store i32 %30, ptr %25, align 8, !tbaa !18
  %31 = icmp eq i32 %30, 0
  br i1 %31, label %32, label %Py_DECREF.exit

32:                                               ; preds = %29
  call void @_Py_Dealloc(ptr noundef nonnull %25) #7
  br label %Py_DECREF.exit

Py_DECREF.exit:                                   ; preds = %32, %29, %26
  %33 = icmp eq i64 %27, -1
  br i1 %33, label %Py_DECREF.exit.thread, label %.thread48

Py_DECREF.exit.thread:                            ; preds = %22, %Py_DECREF.exit
  %34 = call ptr @PyErr_Occurred() #7
  %.not41 = icmp eq ptr %34, null
  br i1 %.not41, label %.thread48, label %36

.thread48:                                        ; preds = %Py_DECREF.exit.thread, %Py_DECREF.exit, %21
  %.031 = phi i64 [ 0, %21 ], [ %27, %Py_DECREF.exit ], [ -1, %Py_DECREF.exit.thread ]
  %35 = call fastcc ptr @Struct_unpack_from_impl(ptr noundef %0, ptr noundef %6, i64 noundef %.031)
  br label %36

36:                                               ; preds = %Py_DECREF.exit.thread, %.thread, %16, %.thread48
  %.032 = phi ptr [ null, %.thread ], [ %35, %.thread48 ], [ null, %16 ], [ null, %Py_DECREF.exit.thread ]
  %37 = getelementptr inbounds nuw i8, ptr %6, i64 8
  %38 = load ptr, ptr %37, align 8, !tbaa !31
  %.not42 = icmp eq ptr %38, null
  br i1 %.not42, label %40, label %39

39:                                               ; preds = %36
  call void @PyBuffer_Release(ptr noundef nonnull %6) #7
  br label %40

40:                                               ; preds = %36, %39
  call void @llvm.lifetime.end.p0(i64 80, ptr nonnull %6) #7
  call void @llvm.lifetime.end.p0(i64 16, ptr nonnull %5) #7
  ret ptr %.032
}